target datalayout = "e-m:e-p270:32:32-p271:32:32-p272:64:64-i64:64-i128:128-f80:128-n8:16:32:64-S128"
target triple = "x86_64-pc-linux-gnu"

%struct.pmix_list_t = type { %struct.pmix_object_t, %struct.pmix_list_item_t, i64 }
%struct.pmix_object_t = type { %union.pthread_mutex_t, ptr, i32, %struct.pmix_tma }
%union.pthread_mutex_t = type { %struct.__pthread_mutex_s }
%struct.__pthread_mutex_s = type { i32, i32, i32, i32, i32, i16, i16, %struct.__pthread_internal_list }
%struct.__pthread_internal_list = type { ptr, ptr }
%struct.pmix_tma = type { ptr, ptr, ptr, ptr, ptr, ptr, ptr, ptr }
%struct.pmix_list_item_t = type { %struct.pmix_object_t, ptr, ptr, i32 }
%struct.pmix_hash_table_t = type { %struct.pmix_object_t, ptr, ptr, i64, i64, i64, i32, i32, i32, i32, ptr }
%struct.pmix_mca_base_component_repository_item_t = type { %struct.pmix_list_item_t, ptr, [32 x i8], [64 x i8], ptr, ptr, ptr, ptr, i32 }

@pmix_mca_base_component_repository = internal global %struct.pmix_hash_table_t zeroinitializer, align 8

; Function Attrs: nounwind uwtable
define internal ptr @find_component(ptr noundef %0, ptr noundef %1) #0 {
  %3 = alloca ptr, align 8
  %4 = alloca ptr, align 8
  %5 = alloca ptr, align 8
  %6 = alloca ptr, align 8
  %7 = alloca ptr, align 8
  %8 = alloca i32, align 4
  %9 = alloca i32, align 4
  store ptr %0, ptr %4, align 8, !tbaa !30
  store ptr %1, ptr %5, align 8, !tbaa !30
  call void @llvm.lifetime.start.p0(i64 8, ptr %6) #12
  call void @llvm.lifetime.start.p0(i64 8, ptr %7) #12
  call void @llvm.lifetime.start.p0(i64 4, ptr %8) #12
  %10 = load ptr, ptr %4, align 8, !tbaa !30
  %11 = load ptr, ptr %4, align 8, !tbaa !30
  %12 = call i64 @strlen(ptr noundef %11) #13
  %13 = call i32 @pmix_hash_table_get_value_ptr(ptr noundef @pmix_mca_base_component_repository, ptr noundef %10, i64 noundef %12, ptr noundef %7)
  store i32 %13, ptr %8, align 4, !tbaa !37
  %14 = load i32, ptr %8, align 4, !tbaa !37
  %15 = icmp ne i32 0, %14
  br i1 %15, label %16, label %17

16:                                               ; preds = %2
  store ptr null, ptr %3, align 8
  store i32 1, ptr %9, align 4
  br label %42

17:                                               ; preds = %2
  %18 = load ptr, ptr %7, align 8, !tbaa !38
  %19 = getelementptr inbounds nuw %struct.pmix_list_t, ptr %18, i32 0, i32 1
  %20 = getelementptr inbounds nuw %struct.pmix_list_item_t, ptr %19, i32 0, i32 1
  %21 = load ptr, ptr %20, align 8, !tbaa !41
  store ptr %21, ptr %6, align 8, !tbaa !3
  br label %22

22:                                               ; preds = %37, %17
  %23 = load ptr, ptr %6, align 8, !tbaa !3
  %24 = load ptr, ptr %7, align 8, !tbaa !38
  %25 = getelementptr inbounds nuw %struct.pmix_list_t, ptr %24, i32 0, i32 1
  %26 = icmp ne ptr %23, %25
  br i1 %26, label %27, label %41

27:                                               ; preds = %22
  %28 = load ptr, ptr %6, align 8, !tbaa !3
  %29 = getelementptr inbounds nuw %struct.pmix_mca_base_component_repository_item_t, ptr %28, i32 0, i32 3
  %30 = getelementptr inbounds [64 x i8], ptr %29, i64 0, i64 0
  %31 = load ptr, ptr %5, align 8, !tbaa !30
  %32 = call i32 @strcmp(ptr noundef %30, ptr noundef %31) #13
  %33 = icmp eq i32 0, %32
  br i1 %33, label %34, label %36

34:                                               ; preds = %27
  %35 = load ptr, ptr %6, align 8, !tbaa !3
  store ptr %35, ptr %3, align 8
  store i32 1, ptr %9, align 4
  br label %42

36:                                               ; preds = %27
  br label %37

37:                                               ; preds = %36
  %38 = load ptr, ptr %6, align 8, !tbaa !3
  %39 = getelementptr inbounds nuw %struct.pmix_list_item_t, ptr %38, i32 0, i32 1
  %40 = load ptr, ptr %39, align 8, !tbaa !43
  store ptr %40, ptr %6, align 8, !tbaa !3
  br label %22, !llvm.loop !80

41:                                               ; preds = %22
  store ptr null, ptr %3, align 8
  store i32 1, ptr %9, align 4
  br label %42

42:                                               ; preds = %41, %34, %16
  call void @llvm.lifetime.end.p0(i64 4, ptr %8) #12
  call void @llvm.lifetime.end.p0(i64 8, ptr %7) #12
  call void @llvm.lifetime.end.p0(i64 8, ptr %6) #12
  %43 = load ptr, ptr %3, align 8
  ret ptr %43
}

; Function Attrs: nounwind uwtable
define i32 @pmix_mca_base_component_repository_retain_component(ptr noundef %0, ptr noundef %1) #0 {
  %3 = alloca i32, align 4
  %4 = alloca ptr, align 8
  %5 = alloca ptr, align 8
  %6 = alloca ptr, align 8
  %7 = alloca i32, align 4
  store ptr %0, ptr %4, align 8, !tbaa !30
  store ptr %1, ptr %5, align 8, !tbaa !30
  call void @llvm.lifetime.start.p0(i64 8, ptr %6) #12
  %8 = load ptr, ptr %4, align 8, !tbaa !30
  %9 = load ptr, ptr %5, align 8, !tbaa !30
  %10 = call ptr @find_component(ptr noundef %8, ptr noundef %9)
  store ptr %10, ptr %6, align 8, !tbaa !3
  %11 = load ptr, ptr %6, align 8, !tbaa !3
  %12 = icmp ne ptr null, %11
  br i1 %12, label %13, label %18

13:                                               ; preds = %2
  %14 = load ptr, ptr %6, align 8, !tbaa !3
  %15 = getelementptr inbounds nuw %struct.pmix_mca_base_component_repository_item_t, ptr %14, i32 0, i32 8
  %16 = load i32, ptr %15, align 8, !tbaa !79
  %17 = add nsw i32 %16, 1
  store i32 %17, ptr %15, align 8, !tbaa !79
  store i32 0, ptr %3, align 4
  store i32 1, ptr %7, align 4
  br label %19

18:                                               ; preds = %2
  store i32 -46, ptr %3, align 4
  store i32 1, ptr %7, align 4
  br label %19

19:                                               ; preds = %18, %13
  call void @llvm.lifetime.end.p0(i64 8, ptr %6) #12
  %20 = load i32, ptr %3, align 4
  ret i32 %20
}