; Function Attrs: nounwind uwtable
define range(i32 -46, 1) i32 @pmix_mca_base_component_repository_retain_component(ptr noundef %0, ptr noundef readonly captures(none) %1) local_unnamed_addr #1 {
  %3 = alloca ptr, align 8
  call void @llvm.lifetime.start.p0(i64 8, ptr nonnull %3) #15
  %4 = tail call i64 @strlen(ptr noundef nonnull dereferenceable(1) %0) #16
  %5 = call i32 @pmix_hash_table_get_value_ptr(ptr noundef nonnull @pmix_mca_base_component_repository, ptr noundef nonnull %0, i64 noundef %4, ptr noundef nonnull %3) #15
  %.not.i = icmp eq i32 %5, 0
  br i1 %.not.i, label %6, label %find_component.exit.thread

6:                                                ; preds = %2
  %7 = load ptr, ptr %3, align 8, !tbaa !38
  %8 = getelementptr inbounds nuw i8, ptr %7, i64 240
  %9 = getelementptr inbounds nuw i8, ptr %7, i64 120
  %.0810.i = load ptr, ptr %8, align 8, !tbaa !43
  %.not911.i = icmp eq ptr %.0810.i, %9
  br i1 %.not911.i, label %find_component.exit.thread, label %.lr.ph.i

.lr.ph.i:                                         ; preds = %6, %13
  %.0812.i = phi ptr [ %.08.i, %13 ], [ %.0810.i, %6 ]
  %10 = getelementptr inbounds nuw i8, ptr %.0812.i, i64 184
  %11 = call i32 @strcmp(ptr noundef nonnull dereferenceable(1) %10, ptr noundef nonnull readonly dereferenceable(1) %1) #16
  %12 = icmp eq i32 %11, 0
  br i1 %12, label %15, label %13

13:                                               ; preds = %.lr.ph.i
  %14 = getelementptr inbounds nuw i8, ptr %.0812.i, i64 120
  %.08.i = load ptr, ptr %14, align 8, !tbaa !43
  %.not9.i = icmp eq ptr %.08.i, %9
  br i1 %.not9.i, label %find_component.exit.thread, label %.lr.ph.i, !llvm.loop !54

find_component.exit.thread:                       ; preds = %13, %2, %6
  call void @llvm.lifetime.end.p0(i64 8, ptr nonnull %3) #15
  br label %19

15:                                               ; preds = %.lr.ph.i
  call void @llvm.lifetime.end.p0(i64 8, ptr nonnull %3) #15
  %16 = getelementptr inbounds nuw i8, ptr %.0812.i, i64 280
  %17 = load i32, ptr %16, align 8, !tbaa !55
  %18 = add nsw i32 %17, 1
  store i32 %18, ptr %16, align 8, !tbaa !55
  br label %19

19:                                               ; preds = %find_component.exit.thread, %15
  %.0 = phi i32 [ 0, %15 ], [ -46, %find_component.exit.thread ]
  ret i32 %.0
}